(dp1
S'output'
p2
S'Unable to open included view file: /Users/bola/Desktop/web2py/applications/buysellapp/views/master.html'
p3
sS'layer'
p4
S'ParserContainer'
p5
sS'code'
p6
S'<!DOCTYPE html>\n<html>\n<head>\n  <link rel="stylesheet" href="{{=URL(\'static\', \'css/bootstrap.min.css\')}}"/>\n  <link rel="stylesheet" href="{{=URL(\'static\', \'css/register.css\')}}"/>\n</head>\n<body>\n  <div class="container register-container">\n    <div class="row">\n      <div class="col-md-4"></div>\n      <div class="col-md-4">\n        <h1>Sign Up</h1>\n        {{extend "master.html"}}\n        <form action="{{=URL(\'store\')}}" method="post">\n          <div class="form-group">\n            <label for="exampleInputFirstName">First Name</label>\n            <input type="text" name="firstname" class="form-control" placeholder="exampleInputFirstName">\n          </div>\n          <div class="form-group">\n            <label for="exampleInputLastName">Last Name</label>\n            <input type="text" name="lastname" class="form-control" placeholder="exampleInputLastName">\n          </div>\n          <div class="form-group">\n            <label for="exampleInputEmail1">Email address</label>\n            <input type="email" name="email" class="form-control" id="exampleInputEmail1" placeholder="Email">\n          </div>\n          <div class="form-group">\n            <label for="exampleInputPassword1">Password</label>\n            <input type="password" name="password" class="form-control" id="exampleInputPassword1" placeholder="Password">\n          </div>\n          <button type="submit" class="signupbtn">Sign Up</button>\n        </form>\n      </div>\n      <div class="col-md-4"></div>\n    </div>\n  </div>\n</body>\n</html>'
p7
sS'snapshot'
p8
(dp9
S'exception'
p10
(dp11
S'__getslice__'
p12
S"<method-wrapper '__getslice__' of exceptions.IOError object>"
p13
sS'__str__'
p14
S"<method-wrapper '__str__' of exceptions.IOError object>"
p15
sS'__reduce__'
p16
S'<built-in method __reduce__ of exceptions.IOError object>'
p17
sS'__dict__'
p18
S'{}'
p19
sS'__sizeof__'
p20
S'<built-in method __sizeof__ of exceptions.IOError object>'
p21
sS'message'
p22
S"''"
p23
sS'__init__'
p24
S"<method-wrapper '__init__' of exceptions.IOError object>"
p25
sS'__setattr__'
p26
S"<method-wrapper '__setattr__' of exceptions.IOError object>"
p27
sS'__reduce_ex__'
p28
S'<built-in method __reduce_ex__ of exceptions.IOError object>'
p29
sS'__new__'
p30
S'<built-in method __new__ of type object>'
p31
sS'errno'
p32
S'2'
sS'__format__'
p33
S'<built-in method __format__ of exceptions.IOError object>'
p34
sS'__class__'
p35
S"<type 'exceptions.IOError'>"
p36
sS'filename'
p37
S"'/Users/bola/Desktop/web2py/applications/buysellapp/views/master.html'"
p38
sS'__doc__'
p39
S"'I/O operation failed.'"
p40
sS'__getitem__'
p41
S"<method-wrapper '__getitem__' of exceptions.IOError object>"
p42
sS'__setstate__'
p43
S'<built-in method __setstate__ of exceptions.IOError object>'
p44
sS'__getattribute__'
p45
S"<method-wrapper '__getattribute__' of exceptions.IOError object>"
p46
sS'args'
p47
S"(2, 'No such file or directory')"
p48
sS'__subclasshook__'
p49
S'<built-in method __subclasshook__ of type object>'
p50
sS'__unicode__'
p51
S'<built-in method __unicode__ of exceptions.IOError object>'
p52
sS'strerror'
p53
S"'No such file or directory'"
p54
sS'__delattr__'
p55
S"<method-wrapper '__delattr__' of exceptions.IOError object>"
p56
sS'__repr__'
p57
S"<method-wrapper '__repr__' of exceptions.IOError object>"
p58
sS'__hash__'
p59
S"<method-wrapper '__hash__' of exceptions.IOError object>"
p60
ssS'evalue'
p61
S"[Errno 2] No such file or directory: '/Users/bola/Desktop/web2py/applications/buysellapp/views/master.html'"
p62
sS'frames'
p63
(lp64
(dp65
S'file'
p66
S'/Users/bola/Desktop/web2py/gluon/template.py'
p67
sS'dump'
p68
(dp69
S'builtinopen'
p70
S'<built-in function open>'
p71
sS'fileobj'
p72
S'undefined'
p73
sS'filepath'
p74
S"'/Users/bola/Desktop/web2py/applications/buysellapp/views/master.html'"
p75
ssS'lnum'
p76
I445
sS'lines'
p77
(dp78
I448
S'        except IOError:'
p79
sI449
S"            self._raise_error('Unable to open included view file: ' + filepath)"
p80
sI440
S'        # Get the path of the file on the system.'
p81
sI441
S'        filepath = self.path and os.path.join(self.path, filename) or filename'
p82
sI442
S''
sI443
S'        # try to read the text.'
p83
sI444
S'        try:'
p84
sI445
S"            fileobj = open(filepath, 'rb')"
p85
sI446
S'            text = fileobj.read()'
p86
sI447
S'            fileobj.close()'
p87
ssS'call'
p88
S"(self=<gluon.template.TemplateParser object>, filename='master.html')"
p89
sS'func'
p90
S'_get_file_text'
p91
sasS'pyver'
p92
S'Python 2.7.10: /usr/bin/python (prefix: /System/Library/Frameworks/Python.framework/Versions/2.7)'
p93
sS'etype'
p94
S"<type 'exceptions.IOError'>"
p95
sS'date'
p96
S'Fri Mar  8 11:26:40 2019'
p97
sS'locals'
p98
(dp99
S'self'
p100
S'<gluon.template.TemplateParser object>'
p101
sS'filepath'
p102
S"'/Users/bola/Desktop/web2py/applications/buysellapp/views/master.html'"
p103
sS'context'
p104
S"{'A': <class 'gluon.html.A'>, 'ANY_OF': <class 'gluon.validators.ANY_OF'>, 'ASSIGNJS': <function ASSIGNJS>, 'Auth': <class 'gluon.tools.Auth'>, 'B': <class 'gluon.html.B'>, 'BEAUTIFY': <class 'gluon.html.BEAUTIFY'>, 'BODY': <class 'gluon.html.BODY'>, 'BR': <class 'gluon.html.BR'>, 'BUTTON': <class 'gluon.html.BUTTON'>, 'CAT': <class 'gluon.html.CAT'>, ...}"
p105
sg37
S"'master.html'"
p106
sssS'traceback'
p107
S'Traceback (most recent call last):\n  File "/Users/bola/Desktop/web2py/gluon/template.py", line 445, in _get_file_text\n    fileobj = open(filepath, \'rb\')\nIOError: [Errno 2] No such file or directory: \'/Users/bola/Desktop/web2py/applications/buysellapp/views/master.html\'\n'
p108
s.