(dp1
S'output'
p2
S"<type 'exceptions.NameError'> name 'grid' is not defined"
p3
sS'layer'
p4
S'/Users/bola/Desktop/web2py/applications/buysellapp/views/default/search.html'
p5
sS'code'
p6
S'response.write(\'\\n<!DOCTYPE html>\\n<head>\\n<link href="https://fonts.googleapis.com/css?family=Poppins" rel="stylesheet">\\n</head>\\n<style>\\n\\nh1 {\\n\\tfont-family: \\\'Poppins\\\', sans-serif;\\n\\tcolor: DarkPink;\\n\\tfont-weight: bold;\\n\\ttext-align: center;\\n\\tfont-size: 40px;\\n\\tpadding: 30px;\\n}\\n\\nbody {\\n\\ttext-align: left;\\n\\tline-height: 50px;\\n\\tcolor: Teal;\\n\\tfont-size: 20px;\\n\\tfont-family: \\\'Poppins\\\', sans-serif;\\n\\n</style>\\n<body>\\n<h2>Management Interface</h2>\\n\', escape=False)\nresponse.write(grid)\nresponse.write(\'\\n</body>\\n</html>\\n<h1>Search Ads</h1>\\n[ \', escape=False)\nresponse.write(A(\'listall ads\', _href=URL(\'index\')))\nresponse.write(\']<br />\\n\', escape=False)\nresponse.write(form)\nresponse.write(\'<br />\', escape=False)\nresponse.write(target_div)'
p7
sS'snapshot'
p8
(dp9
S'exception'
p10
(dp11
S'__getslice__'
p12
S"<method-wrapper '__getslice__' of exceptions.NameError object>"
p13
sS'__str__'
p14
S"<method-wrapper '__str__' of exceptions.NameError object>"
p15
sS'__reduce__'
p16
S'<built-in method __reduce__ of exceptions.NameError object>'
p17
sS'__dict__'
p18
S'{}'
p19
sS'message'
p20
S'"name \'grid\' is not defined"'
p21
sS'__sizeof__'
p22
S'<built-in method __sizeof__ of exceptions.NameError object>'
p23
sS'__init__'
p24
S"<method-wrapper '__init__' of exceptions.NameError object>"
p25
sS'__setattr__'
p26
S"<method-wrapper '__setattr__' of exceptions.NameError object>"
p27
sS'__reduce_ex__'
p28
S'<built-in method __reduce_ex__ of exceptions.NameError object>'
p29
sS'__new__'
p30
S'<built-in method __new__ of type object>'
p31
sS'__format__'
p32
S'<built-in method __format__ of exceptions.NameError object>'
p33
sS'__class__'
p34
S"<type 'exceptions.NameError'>"
p35
sS'__doc__'
p36
S"'Name not found globally.'"
p37
sS'__getitem__'
p38
S"<method-wrapper '__getitem__' of exceptions.NameError object>"
p39
sS'__setstate__'
p40
S'<built-in method __setstate__ of exceptions.NameError object>'
p41
sS'__getattribute__'
p42
S"<method-wrapper '__getattribute__' of exceptions.NameError object>"
p43
sS'args'
p44
S'("name \'grid\' is not defined",)'
p45
sS'__subclasshook__'
p46
S'<built-in method __subclasshook__ of type object>'
p47
sS'__unicode__'
p48
S'<built-in method __unicode__ of exceptions.NameError object>'
p49
sS'__delattr__'
p50
S"<method-wrapper '__delattr__' of exceptions.NameError object>"
p51
sS'__repr__'
p52
S"<method-wrapper '__repr__' of exceptions.NameError object>"
p53
sS'__hash__'
p54
S"<method-wrapper '__hash__' of exceptions.NameError object>"
p55
ssS'evalue'
p56
S"name 'grid' is not defined"
p57
sS'request'
p58
cgluon.html
XML_unpickle
p59
(S'sdx\x00\x00<div><table><tr><td style="font-weight:bold;vertical-align:top;">ajax</td><td style="vertical-align:top;">:</td><td><div>False</div></td></tr><tr><td style="font-weight:bold;vertical-align:top;">application</td><td style="vertical-align:top;">:</td><td><div>buysellapp</div></td></tr><tr><td style="font-weight:bold;vertical-align:top;">args</td><td style="vertical-align:top;">:</td><td><div><table></table></div></td></tr><tr><td style="font-weight:bold;vertical-align:top;">cid</td><td style="vertical-align:top;">:</td><td><div>None</div></td></tr><tr><td style="font-weight:bold;vertical-align:top;">client</td><td style="vertical-align:top;">:</td><td><div>127.0.0.1</div></td></tr><tr><td style="font-weight:bold;vertical-align:top;">controller</td><td style="vertical-align:top;">:</td><td><div>default</div></td></tr><tr><td style="font-weight:bold;vertical-align:top;">cookies</td><td style="vertical-align:top;">:</td><td><div><table><tr><td style="font-weight:bold;vertical-align:top;">session_id_admin</td><td style="vertical-align:top;">:</td><td><div>127.0.0.1-0b5ff936-7f55-4c1a-98fd-3c33a2fc519a<table><tr><td style="font-weight:bold;vertical-align:top;">comment</td><td style="vertical-align:top;">:</td><td><div></div></td></tr><tr><td style="font-weight:bold;vertical-align:top;">domain</td><td style="vertical-align:top;">:</td><td><div></div></td></tr><tr><td style="font-weight:bold;vertical-align:top;">expires</td><td style="vertical-align:top;">:</td><td><div></div></td></tr><tr><td style="font-weight:bold;vertical-align:top;">httponly</td><td style="vertical-align:top;">:</td><td><div></div></td></tr><tr><td style="font-weight:bold;vertical-align:top;">max-age</td><td style="vertical-align:top;">:</td><td><div></div></td></tr><tr><td style="font-weight:bold;vertical-align:top;">path</td><td style="vertical-align:top;">:</td><td><div></div></td></tr><tr><td style="font-weight:bold;vertical-align:top;">secure</td><td style="vertical-align:top;">:</td><td><div></div></td></tr><tr><td style="font-weight:bold;vertical-align:top;">version</td><td style="vertical-align:top;">:</td><td><div></div></td></tr></table></div></td></tr><tr><td style="font-weight:bold;vertical-align:top;">session_id_awalsmanagementsystem</td><td style="vertical-align:top;">:</td><td><div>127.0.0.1-b9956d51-171e-4e37-8eee-c2b3a541f51c<table><tr><td style="font-weight:bold;vertical-align:top;">comment</td><td style="vertical-align:top;">:</td><td><div></div></td></tr><tr><td style="font-weight:bold;vertical-align:top;">domain</td><td style="vertical-align:top;">:</td><td><div></div></td></tr><tr><td style="font-weight:bold;vertical-align:top;">expires</td><td style="vertical-align:top;">:</td><td><div></div></td></tr><tr><td style="font-weight:bold;vertical-align:top;">httponly</td><td style="vertical-align:top;">:</td><td><div></div></td></tr><tr><td style="font-weight:bold;vertical-align:top;">max-age</td><td style="vertical-align:top;">:</td><td><div></div></td></tr><tr><td style="font-weight:bold;vertical-align:top;">path</td><td style="vertical-align:top;">:</td><td><div></div></td></tr><tr><td style="font-weight:bold;vertical-align:top;">secure</td><td style="vertical-align:top;">:</td><td><div></div></td></tr><tr><td style="font-weight:bold;vertical-align:top;">version</td><td style="vertical-align:top;">:</td><td><div></div></td></tr></table></div></td></tr><tr><td style="font-weight:bold;vertical-align:top;">session_id_buysell</td><td style="vertical-align:top;">:</td><td><div>127.0.0.1-48d9c6a2-a1f1-4ba7-981d-2af14930b97f<table><tr><td style="font-weight:bold;vertical-align:top;">comment</td><td style="vertical-align:top;">:</td><td><div></div></td></tr><tr><td style="font-weight:bold;vertical-align:top;">domain</td><td style="vertical-align:top;">:</td><td><div></div></td></tr><tr><td style="font-weight:bold;vertical-align:top;">expires</td><td style="vertical-align:top;">:</td><td><div></div></td></tr><tr><td style="font-weight:bold;vertical-align:top;">httponly</td><td style="vertical-align:top;">:</td><td><div></div></td></tr><tr><td style="font-weight:bold;vertical-align:top;">max-age</td><td style="vertical-align:top;">:</td><td><div></div></td></tr><tr><td style="font-weight:bold;vertical-align:top;">path</td><td style="vertical-align:top;">:</td><td><div></div></td></tr><tr><td style="font-weight:bold;vertical-align:top;">secure</td><td style="vertical-align:top;">:</td><td><div></div></td></tr><tr><td style="font-weight:bold;vertical-align:top;">version</td><td style="vertical-align:top;">:</td><td><div></div></td></tr></table></div></td></tr><tr><td style="font-weight:bold;vertical-align:top;">session_id_buysellapp</td><td style="vertical-align:top;">:</td><td><div>127.0.0.1-0a2a9b84-6c11-4ab0-8fd6-a04aa9bf0791<table><tr><td style="font-weight:bold;vertical-align:top;">comment</td><td style="vertical-align:top;">:</td><td><div></div></td></tr><tr><td style="font-weight:bold;vertical-align:top;">domain</td><td style="vertical-align:top;">:</td><td><div></div></td></tr><tr><td style="font-weight:bold;vertical-align:top;">expires</td><td style="vertical-align:top;">:</td><td><div></div></td></tr><tr><td style="font-weight:bold;vertical-align:top;">httponly</td><td style="vertical-align:top;">:</td><td><div></div></td></tr><tr><td style="font-weight:bold;vertical-align:top;">max-age</td><td style="vertical-align:top;">:</td><td><div></div></td></tr><tr><td style="font-weight:bold;vertical-align:top;">path</td><td style="vertical-align:top;">:</td><td><div></div></td></tr><tr><td style="font-weight:bold;vertical-align:top;">secure</td><td style="vertical-align:top;">:</td><td><div></div></td></tr><tr><td style="font-weight:bold;vertical-align:top;">version</td><td style="vertical-align:top;">:</td><td><div></div></td></tr></table></div></td></tr><tr><td style="font-weight:bold;vertical-align:top;">session_id_images</td><td style="vertical-align:top;">:</td><td><div>127.0.0.1-d7d572e1-51e9-433c-ab2c-d3225087f96a<table><tr><td style="font-weight:bold;vertical-align:top;">comment</td><td style="vertical-align:top;">:</td><td><div></div></td></tr><tr><td style="font-weight:bold;vertical-align:top;">domain</td><td style="vertical-align:top;">:</td><td><div></div></td></tr><tr><td style="font-weight:bold;vertical-align:top;">expires</td><td style="vertical-align:top;">:</td><td><div></div></td></tr><tr><td style="font-weight:bold;vertical-align:top;">httponly</td><td style="vertical-align:top;">:</td><td><div></div></td></tr><tr><td style="font-weight:bold;vertical-align:top;">max-age</td><td style="vertical-align:top;">:</td><td><div></div></td></tr><tr><td style="font-weight:bold;vertical-align:top;">path</td><td style="vertical-align:top;">:</td><td><div></div></td></tr><tr><td style="font-weight:bold;vertical-align:top;">secure</td><td style="vertical-align:top;">:</td><td><div></div></td></tr><tr><td style="font-weight:bold;vertical-align:top;">version</td><td style="vertical-align:top;">:</td><td><div></div></td></tr></table></div></td></tr><tr><td style="font-weight:bold;vertical-align:top;">session_id_welcome</td><td style="vertical-align:top;">:</td><td><div>127.0.0.1-6c5d9ca2-d9a7-495b-aadc-ff8bc96d12a5<table><tr><td style="font-weight:bold;vertical-align:top;">comment</td><td style="vertical-align:top;">:</td><td><div></div></td></tr><tr><td style="font-weight:bold;vertical-align:top;">domain</td><td style="vertical-align:top;">:</td><td><div></div></td></tr><tr><td style="font-weight:bold;vertical-align:top;">expires</td><td style="vertical-align:top;">:</td><td><div></div></td></tr><tr><td style="font-weight:bold;vertical-align:top;">httponly</td><td style="vertical-align:top;">:</td><td><div></div></td></tr><tr><td style="font-weight:bold;vertical-align:top;">max-age</td><td style="vertical-align:top;">:</td><td><div></div></td></tr><tr><td style="font-weight:bold;vertical-align:top;">path</td><td style="vertical-align:top;">:</td><td><div></div></td></tr><tr><td style="font-weight:bold;vertical-align:top;">secure</td><td style="vertical-align:top;">:</td><td><div></div></td></tr><tr><td style="font-weight:bold;vertical-align:top;">version</td><td style="vertical-align:top;">:</td><td><div></div></td></tr></table></div></td></tr></table></div></td></tr><tr><td style="font-weight:bold;vertical-align:top;">env</td><td style="vertical-align:top;">:</td><td><div><table><tr><td style="font-weight:bold;vertical-align:top;">CONTENT_LENGTH</td><td style="vertical-align:top;">:</td><td><div>155</div></td></tr><tr><td style="font-weight:bold;vertical-align:top;">CONTENT_TYPE</td><td style="vertical-align:top;">:</td><td><div>multipart/form-data; boundary=----WebKitFormBoundaryAuRO7L5uSMd8908e</div></td></tr><tr><td style="font-weight:bold;vertical-align:top;">HTTP_ACCEPT</td><td style="vertical-align:top;">:</td><td><div>text/html,application/xhtml+xml,application/xml;q=0.9,image/webp,image/apng,*/*;q=0.8</div></td></tr><tr><td style="font-weight:bold;vertical-align:top;">HTTP_ACCEPT_ENCODING</td><td style="vertical-align:top;">:</td><td><div>gzip, deflate, br</div></td></tr><tr><td style="font-weight:bold;vertical-align:top;">HTTP_ACCEPT_LANGUAGE</td><td style="vertical-align:top;">:</td><td><div>en-US,en;q=0.9</div></td></tr><tr><td style="font-weight:bold;vertical-align:top;">HTTP_CACHE_CONTROL</td><td style="vertical-align:top;">:</td><td><div>max-age=0</div></td></tr><tr><td style="font-weight:bold;vertical-align:top;">HTTP_CONNECTION</td><td style="vertical-align:top;">:</td><td><div>keep-alive</div></td></tr><tr><td style="font-weight:bold;vertical-align:top;">HTTP_CONTENT_LENGTH</td><td style="vertical-align:top;">:</td><td><div>155</div></td></tr><tr><td style="font-weight:bold;vertical-align:top;">HTTP_CONTENT_TYPE</td><td style="vertical-align:top;">:</td><td><div>multipart/form-data; boundary=----WebKitFormBoundaryAuRO7L5uSMd8908e</div></td></tr><tr><td style="font-weight:bold;vertical-align:top;">HTTP_COOKIE</td><td style="vertical-align:top;">:</td><td><div>session_id_admin=127.0.0.1-0b5ff936-7f55-4c1a-98fd-3c33a2fc519a; session_id_images=127.0.0.1-d7d572e1-51e9-433c-ab2c-d3225087f96a; session_id_welcome=127.0.0.1-6c5d9ca2-d9a7-495b-aadc-ff8bc96d12a5; session_id_buysell=127.0.0.1-48d9c6a2-a1f1-4ba7-981d-2af14930b97f; session_id_awalsmanagementsystem=127.0.0.1-b9956d51-171e-4e37-8eee-c2b3a541f51c; session_id_buysellapp=127.0.0.1-0a2a9b84-6c11-4ab0-8fd6-a04aa9bf0791</div></td></tr><tr><td style="font-weight:bold;vertical-align:top;">HTTP_HOST</td><td style="vertical-align:top;">:</td><td><div>127.0.0.1:8000</div></td></tr><tr><td style="font-weight:bold;vertical-align:top;">HTTP_ORIGIN</td><td style="vertical-align:top;">:</td><td><div>http://127.0.0.1:8000</div></td></tr><tr><td style="font-weight:bold;vertical-align:top;">HTTP_REFERER</td><td style="vertical-align:top;">:</td><td><div>http://127.0.0.1:8000/buysellapp/default/search</div></td></tr><tr><td style="font-weight:bold;vertical-align:top;">HTTP_UPGRADE_INSECURE_REQUESTS</td><td style="vertical-align:top;">:</td><td><div>1</div></td></tr><tr><td style="font-weight:bold;vertical-align:top;">HTTP_USER_AGENT</td><td style="vertical-align:top;">:</td><td><div>Mozilla/5.0 (Macintosh; Intel Mac OS X 10_13_6) AppleWebKit/537.36 (KHTML, like Gecko) Chrome/71.0.3578.98 Safari/537.36</div></td></tr><tr><td style="font-weight:bold;vertical-align:top;">PATH_INFO</td><td style="vertical-align:top;">:</td><td><div>/buysellapp/default/search</div></td></tr><tr><td style="font-weight:bold;vertical-align:top;">QUERY_STRING</td><td style="vertical-align:top;">:</td><td><div></div></td></tr><tr><td style="font-weight:bold;vertical-align:top;">REMOTE_ADDR</td><td style="vertical-align:top;">:</td><td><div>127.0.0.1</div></td></tr><tr><td style="font-weight:bold;vertical-align:top;">REMOTE_PORT</td><td style="vertical-align:top;">:</td><td><div>50603</div></td></tr><tr><td style="font-weight:bold;vertical-align:top;">REQUEST_METHOD</td><td style="vertical-align:top;">:</td><td><div>POST</div></td></tr><tr><td style="font-weight:bold;vertical-align:top;">SCRIPT_NAME</td><td style="vertical-align:top;">:</td><td><div></div></td></tr><tr><td style="font-weight:bold;vertical-align:top;">SERVER_NAME</td><td style="vertical-align:top;">:</td><td><div>Bolas-MacBook-Pro.local</div></td></tr><tr><td style="font-weight:bold;vertical-align:top;">SERVER_PORT</td><td style="vertical-align:top;">:</td><td><div>8000</div></td></tr><tr><td style="font-weight:bold;vertical-align:top;">SERVER_PROTOCOL</td><td style="vertical-align:top;">:</td><td><div>HTTP/1.1</div></td></tr><tr><td style="font-weight:bold;vertical-align:top;">SERVER_SOFTWARE</td><td style="vertical-align:top;">:</td><td><div>Rocket 1.2.6</div></td></tr><tr><td style="font-weight:bold;vertical-align:top;">app_folders</td><td style="vertical-align:top;">:</td><td><div>set([&#x27;/Users/bola/Desktop/web2py/applications/images/&#x27;, &#x27;/Users/bola/Desktop/web2py/applications/admin/&#x27;, &#x27;/Users/bola/Desktop/web2py/applications/buysellapp/&#x27;, &#x27;/Users/bola/Desktop/web2py/applications/wikimy/&#x27;, &#x27;/Users/bola/Desktop/web2py/applications/buysell/&#x27;, &#x27;/Users/bola/Desktop/web2py/applications/AwalsManagementSystem/&#x27;, &#x27;/Users/bola/Desktop/web2py/applications/welcome/&#x27;])</div></td></tr><tr><td style="font-weight:bold;vertical-align:top;">applications_parent</td><td style="vertical-align:top;">:</td><td><div>/Users/bola/Desktop/web2py</div></td></tr><tr><td style="font-weight:bold;vertical-align:top;">cmd_args</td><td style="vertical-align:top;">:</td><td><div><table></table></div></td></tr><tr><td style="font-weight:bold;vertical-align:top;">cmd_options</td><td style="vertical-align:top;">:</td><td><div>&lt;Values at 0x104908dd0: {&#x27;verbose&#x27;: False, &#x27;ip&#x27;: &#x27;127.0.0.1&#x27;, &#x27;debuglevel&#x27;: 30, &#x27;with_scheduler&#x27;: False, &#x27;shutdown_timeout&#x27;: 5, &#x27;taskbar&#x27;: False, &#x27;with_coverage&#x27;: False, &#x27;pid_filename&#x27;: &#x27;httpserver.pid&#x27;, &#x27;maxthreads&#x27;: None, &#x27;softcron&#x27;: False, &#x27;server_name&#x27;: &#x27;Bolas-MacBook-Pro.local&#x27;, &#x27;bpython&#x27;: False, &#x27;nogui&#x27;: False, &#x27;port&#x27;: 8000, &#x27;print_errors&#x27;: False, &#x27;extcron&#x27;: False, &#x27;runcron&#x27;: False, &#x27;run_system_tests&#x27;: False, &#x27;test&#x27;: None, &#x27;folder&#x27;: &#x27;/Users/bola/Desktop/web2py&#x27;, &#x27;config&#x27;: &#x27;&#x27;, &#x27;minthreads&#x27;: None, &#x27;shell&#x27;: None, &#x27;run&#x27;: &#x27;&#x27;, &#x27;log_filename&#x27;: &#x27;httpserver.log&#x27;, &#x27;profiler_dir&#x27;: None, &#x27;args&#x27;: [&#x27;&#x27;], &#x27;socket_timeout&#x27;: 5, &#x27;ssl_ca_certificate&#x27;: None, &#x27;scheduler&#x27;: None, &#x27;interfaces&#x27;: None, &#x27;ssl_private_key&#x27;: &#x27;&#x27;, &#x27;gae&#x27;: None, &#x27;password&#x27;: &#x27;******&#x27;, &#x27;request_queue_size&#x27;: 5, &#x27;ssl_certificate&#x27;: &#x27;&#x27;, &#x27;cronjob&#x27;: False, &#x27;numthreads&#x27;: None, &#x27;quiet&#x27;: False, &#x27;import_models&#x27;: False, &#x27;timeout&#x27;: 10, &#x27;plain&#x27;: False, &#x27;nobanner&#x27;: False}&gt;</div></td></tr><tr><td style="font-weight:bold;vertical-align:top;">content_length</td><td style="vertical-align:top;">:</td><td><div>155</div></td></tr><tr><td style="font-weight:bold;vertical-align:top;">content_type</td><td style="vertical-align:top;">:</td><td><div>multipart/form-data; boundary=----WebKitFormBoundaryAuRO7L5uSMd8908e</div></td></tr><tr><td style="font-weight:bold;vertical-align:top;">db_sessions</td><td style="vertical-align:top;">:</td><td><div>set([])</div></td></tr><tr><td style="font-weight:bold;vertical-align:top;">debugging</td><td style="vertical-align:top;">:</td><td><div>False</div></td></tr><tr><td style="font-weight:bold;vertical-align:top;">gluon_parent</td><td style="vertical-align:top;">:</td><td><div>/Users/bola/Desktop/web2py</div></td></tr><tr><td style="font-weight:bold;vertical-align:top;">http_accept</td><td style="vertical-align:top;">:</td><td><div>text/html,application/xhtml+xml,application/xml;q=0.9,image/webp,image/apng,*/*;q=0.8</div></td></tr><tr><td style="font-weight:bold;vertical-align:top;">http_accept_encoding</td><td style="vertical-align:top;">:</td><td><div>gzip, deflate, br</div></td></tr><tr><td style="font-weight:bold;vertical-align:top;">http_accept_language</td><td style="vertical-align:top;">:</td><td><div>en-US,en;q=0.9</div></td></tr><tr><td style="font-weight:bold;vertical-align:top;">http_cache_control</td><td style="vertical-align:top;">:</td><td><div>max-age=0</div></td></tr><tr><td style="font-weight:bold;vertical-align:top;">http_connection</td><td style="vertical-align:top;">:</td><td><div>keep-alive</div></td></tr><tr><td style="font-weight:bold;vertical-align:top;">http_content_length</td><td style="vertical-align:top;">:</td><td><div>155</div></td></tr><tr><td style="font-weight:bold;vertical-align:top;">http_content_type</td><td style="vertical-align:top;">:</td><td><div>multipart/form-data; boundary=----WebKitFormBoundaryAuRO7L5uSMd8908e</div></td></tr><tr><td style="font-weight:bold;vertical-align:top;">http_cookie</td><td style="vertical-align:top;">:</td><td><div>session_id_admin=127.0.0.1-0b5ff936-7f55-4c1a-98fd-3c33a2fc519a; session_id_images=127.0.0.1-d7d572e1-51e9-433c-ab2c-d3225087f96a; session_id_welcome=127.0.0.1-6c5d9ca2-d9a7-495b-aadc-ff8bc96d12a5; session_id_buysell=127.0.0.1-48d9c6a2-a1f1-4ba7-981d-2af14930b97f; session_id_awalsmanagementsystem=127.0.0.1-b9956d51-171e-4e37-8eee-c2b3a541f51c; session_id_buysellapp=127.0.0.1-0a2a9b84-6c11-4ab0-8fd6-a04aa9bf0791</div></td></tr><tr><td style="font-weight:bold;vertical-align:top;">http_host</td><td style="vertical-align:top;">:</td><td><div>127.0.0.1:8000</div></td></tr><tr><td style="font-weight:bold;vertical-align:top;">http_origin</td><td style="vertical-align:top;">:</td><td><div>http://127.0.0.1:8000</div></td></tr><tr><td style="font-weight:bold;vertical-align:top;">http_referer</td><td style="vertical-align:top;">:</td><td><div>http://127.0.0.1:8000/buysellapp/default/search</div></td></tr><tr><td style="font-weight:bold;vertical-align:top;">http_upgrade_insecure_requests</td><td style="vertical-align:top;">:</td><td><div>1</div></td></tr><tr><td style="font-weight:bold;vertical-align:top;">http_user_agent</td><td style="vertical-align:top;">:</td><td><div>Mozilla/5.0 (Macintosh; Intel Mac OS X 10_13_6) AppleWebKit/537.36 (KHTML, like Gecko) Chrome/71.0.3578.98 Safari/537.36</div></td></tr><tr><td style="font-weight:bold;vertical-align:top;">is_jython</td><td style="vertical-align:top;">:</td><td><div>False</div></td></tr><tr><td style="font-weight:bold;vertical-align:top;">is_py2</td><td style="vertical-align:top;">:</td><td><div>True</div></td></tr><tr><td style="font-weight:bold;vertical-align:top;">is_pypy</td><td style="vertical-align:top;">:</td><td><div>False</div></td></tr><tr><td style="font-weight:bold;vertical-align:top;">is_source</td><td style="vertical-align:top;">:</td><td><div>True</div></td></tr><tr><td style="font-weight:bold;vertical-align:top;">local_hosts</td><td style="vertical-align:top;">:</td><td><div><table><tr><td><div>192.168.1.10</div></td></tr><tr><td><div>::ffff:127.0.0.1</div></td></tr><tr><td><div>::1</div></td></tr><tr><td><div>fe80::10e0:8bd8:c93:dd7c%en0</div></td></tr><tr><td><div>Bolas-MacBook-Pro.local</div></td></tr><tr><td><div>127.0.0.1</div></td></tr></table></div></td></tr><tr><td style="font-weight:bold;vertical-align:top;">path_info</td><td style="vertical-align:top;">:</td><td><div>/buysellapp/default/search</div></td></tr><tr><td style="font-weight:bold;vertical-align:top;">query_string</td><td style="vertical-align:top;">:</td><td><div></div></td></tr><tr><td style="font-weight:bold;vertical-align:top;">remote_addr</td><td style="vertical-align:top;">:</td><td><div>127.0.0.1</div></td></tr><tr><td style="font-weight:bold;vertical-align:top;">remote_port</td><td style="vertical-align:top;">:</td><td><div>50603</div></td></tr><tr><td style="font-weight:bold;vertical-align:top;">request_method</td><td style="vertical-align:top;">:</td><td><div>POST</div></td></tr><tr><td style="font-weight:bold;vertical-align:top;">request_uri</td><td style="vertical-align:top;">:</td><td><div>/buysellapp/default/search</div></td></tr><tr><td style="font-weight:bold;vertical-align:top;">script_name</td><td style="vertical-align:top;">:</td><td><div></div></td></tr><tr><td style="font-weight:bold;vertical-align:top;">server_name</td><td style="vertical-align:top;">:</td><td><div>Bolas-MacBook-Pro.local</div></td></tr><tr><td style="font-weight:bold;vertical-align:top;">server_port</td><td style="vertical-align:top;">:</td><td><div>8000</div></td></tr><tr><td style="font-weight:bold;vertical-align:top;">server_protocol</td><td style="vertical-align:top;">:</td><td><div>HTTP/1.1</div></td></tr><tr><td style="font-weight:bold;vertical-align:top;">server_software</td><td style="vertical-align:top;">:</td><td><div>Rocket 1.2.6</div></td></tr><tr><td style="font-weight:bold;vertical-align:top;">web2py_original_uri</td><td style="vertical-align:top;">:</td><td><div>/buysellapp/default/search</div></td></tr><tr><td style="font-weight:bold;vertical-align:top;">web2py_path</td><td style="vertical-align:top;">:</td><td><div>/Users/bola/Desktop/web2py</div></td></tr><tr><td style="font-weight:bold;vertical-align:top;">web2py_version</td><td style="vertical-align:top;">:</td><td><div>2.17.1-stable+timestamp.2018.08.06.01.02.56</div></td></tr><tr><td style="font-weight:bold;vertical-align:top;">wsgi.errors</td><td style="vertical-align:top;">:</td><td><div>&lt;open file &#x27;&lt;stderr&gt;&#x27;, mode &#x27;w&#x27; at 0x103b8a1e0&gt;</div></td></tr><tr><td style="font-weight:bold;vertical-align:top;">wsgi.file_wrapper</td><td style="vertical-align:top;">:</td><td><div>&lt;class wsgiref.util.FileWrapper at 0x1048baef0&gt;</div></td></tr><tr><td style="font-weight:bold;vertical-align:top;">wsgi.input</td><td style="vertical-align:top;">:</td><td><div>&lt;socket._fileobject object at 0x106f649d0&gt;</div></td></tr><tr><td style="font-weight:bold;vertical-align:top;">wsgi.multiprocess</td><td style="vertical-align:top;">:</td><td><div>False</div></td></tr><tr><td style="font-weight:bold;vertical-align:top;">wsgi.multithread</td><td style="vertical-align:top;">:</td><td><div>True</div></td></tr><tr><td style="font-weight:bold;vertical-align:top;">wsgi.run_once</td><td style="vertical-align:top;">:</td><td><div>False</div></td></tr><tr><td style="font-weight:bold;vertical-align:top;">wsgi.url_scheme</td><td style="vertical-align:top;">:</td><td><div>http</div></td></tr><tr><td style="font-weight:bold;vertical-align:top;">wsgi.version</td><td style="vertical-align:top;">:</td><td><div><table><tr><td><div>1</div></td></tr><tr><td><div>0</div></td></tr></table></div></td></tr><tr><td style="font-weight:bold;vertical-align:top;">wsgi_errors</td><td style="vertical-align:top;">:</td><td><div>&lt;open file &#x27;&lt;stderr&gt;&#x27;, mode &#x27;w&#x27; at 0x103b8a1e0&gt;</div></td></tr><tr><td style="font-weight:bold;vertical-align:top;">wsgi_file_wrapper</td><td style="vertical-align:top;">:</td><td><div>&lt;class wsgiref.util.FileWrapper at 0x1048baef0&gt;</div></td></tr><tr><td style="font-weight:bold;vertical-align:top;">wsgi_input</td><td style="vertical-align:top;">:</td><td><div>&lt;socket._fileobject object at 0x106f649d0&gt;</div></td></tr><tr><td style="font-weight:bold;vertical-align:top;">wsgi_multiprocess</td><td style="vertical-align:top;">:</td><td><div>False</div></td></tr><tr><td style="font-weight:bold;vertical-align:top;">wsgi_multithread</td><td style="vertical-align:top;">:</td><td><div>True</div></td></tr><tr><td style="font-weight:bold;vertical-align:top;">wsgi_run_once</td><td style="vertical-align:top;">:</td><td><div>False</div></td></tr><tr><td style="font-weight:bold;vertical-align:top;">wsgi_url_scheme</td><td style="vertical-align:top;">:</td><td><div>http</div></td></tr><tr><td style="font-weight:bold;vertical-align:top;">wsgi_version</td><td style="vertical-align:top;">:</td><td><div><table><tr><td><div>1</div></td></tr><tr><td><div>0</div></td></tr></table></div></td></tr></table></div></td></tr><tr><td style="font-weight:bold;vertical-align:top;">extension</td><td style="vertical-align:top;">:</td><td><div>html</div></td></tr><tr><td style="font-weight:bold;vertical-align:top;">folder</td><td style="vertical-align:top;">:</td><td><div>/Users/bola/Desktop/web2py/applications/buysellapp/</div></td></tr><tr><td style="font-weight:bold;vertical-align:top;">function</td><td style="vertical-align:top;">:</td><td><div>search</div></td></tr><tr><td style="font-weight:bold;vertical-align:top;">global_settings</td><td style="vertical-align:top;">:</td><td><div><table><tr><td style="font-weight:bold;vertical-align:top;">app_folders</td><td style="vertical-align:top;">:</td><td><div>set([&#x27;/Users/bola/Desktop/web2py/applications/images/&#x27;, &#x27;/Users/bola/Desktop/web2py/applications/admin/&#x27;, &#x27;/Users/bola/Desktop/web2py/applications/buysellapp/&#x27;, &#x27;/Users/bola/Desktop/web2py/applications/wikimy/&#x27;, &#x27;/Users/bola/Desktop/web2py/applications/buysell/&#x27;, &#x27;/Users/bola/Desktop/web2py/applications/AwalsManagementSystem/&#x27;, &#x27;/Users/bola/Desktop/web2py/applications/welcome/&#x27;])</div></td></tr><tr><td style="font-weight:bold;vertical-align:top;">applications_parent</td><td style="vertical-align:top;">:</td><td><div>/Users/bola/Desktop/web2py</div></td></tr><tr><td style="font-weight:bold;vertical-align:top;">cmd_args</td><td style="vertical-align:top;">:</td><td><div><table></table></div></td></tr><tr><td style="font-weight:bold;vertical-align:top;">cmd_options</td><td style="vertical-align:top;">:</td><td><div>&lt;Values at 0x104908dd0: {&#x27;verbose&#x27;: False, &#x27;ip&#x27;: &#x27;127.0.0.1&#x27;, &#x27;debuglevel&#x27;: 30, &#x27;with_scheduler&#x27;: False, &#x27;shutdown_timeout&#x27;: 5, &#x27;taskbar&#x27;: False, &#x27;with_coverage&#x27;: False, &#x27;pid_filename&#x27;: &#x27;httpserver.pid&#x27;, &#x27;maxthreads&#x27;: None, &#x27;softcron&#x27;: False, &#x27;server_name&#x27;: &#x27;Bolas-MacBook-Pro.local&#x27;, &#x27;bpython&#x27;: False, &#x27;nogui&#x27;: False, &#x27;port&#x27;: 8000, &#x27;print_errors&#x27;: False, &#x27;extcron&#x27;: False, &#x27;runcron&#x27;: False, &#x27;run_system_tests&#x27;: False, &#x27;test&#x27;: None, &#x27;folder&#x27;: &#x27;/Users/bola/Desktop/web2py&#x27;, &#x27;config&#x27;: &#x27;&#x27;, &#x27;minthreads&#x27;: None, &#x27;shell&#x27;: None, &#x27;run&#x27;: &#x27;&#x27;, &#x27;log_filename&#x27;: &#x27;httpserver.log&#x27;, &#x27;profiler_dir&#x27;: None, &#x27;args&#x27;: [&#x27;&#x27;], &#x27;socket_timeout&#x27;: 5, &#x27;ssl_ca_certificate&#x27;: None, &#x27;scheduler&#x27;: None, &#x27;interfaces&#x27;: None, &#x27;ssl_private_key&#x27;: &#x27;&#x27;, &#x27;gae&#x27;: None, &#x27;password&#x27;: &#x27;******&#x27;, &#x27;request_queue_size&#x27;: 5, &#x27;ssl_certificate&#x27;: &#x27;&#x27;, &#x27;cronjob&#x27;: False, &#x27;numthreads&#x27;: None, &#x27;quiet&#x27;: False, &#x27;import_models&#x27;: False, &#x27;timeout&#x27;: 10, &#x27;plain&#x27;: False, &#x27;nobanner&#x27;: False}&gt;</div></td></tr><tr><td style="font-weight:bold;vertical-align:top;">db_sessions</td><td style="vertical-align:top;">:</td><td><div>set([])</div></td></tr><tr><td style="font-weight:bold;vertical-align:top;">debugging</td><td style="vertical-align:top;">:</td><td><div>False</div></td></tr><tr><td style="font-weight:bold;vertical-align:top;">gluon_parent</td><td style="vertical-align:top;">:</td><td><div>/Users/bola/Desktop/web2py</div></td></tr><tr><td style="font-weight:bold;vertical-align:top;">is_jython</td><td style="vertical-align:top;">:</td><td><div>False</div></td></tr><tr><td style="font-weight:bold;vertical-align:top;">is_py2</td><td style="vertical-align:top;">:</td><td><div>True</div></td></tr><tr><td style="font-weight:bold;vertical-align:top;">is_pypy</td><td style="vertical-align:top;">:</td><td><div>False</div></td></tr><tr><td style="font-weight:bold;vertical-align:top;">is_source</td><td style="vertical-align:top;">:</td><td><div>True</div></td></tr><tr><td style="font-weight:bold;vertical-align:top;">local_hosts</td><td style="vertical-align:top;">:</td><td><div><table><tr><td><div>192.168.1.10</div></td></tr><tr><td><div>::ffff:127.0.0.1</div></td></tr><tr><td><div>::1</div></td></tr><tr><td><div>fe80::10e0:8bd8:c93:dd7c%en0</div></td></tr><tr><td><div>Bolas-MacBook-Pro.local</div></td></tr><tr><td><div>127.0.0.1</div></td></tr></table></div></td></tr><tr><td style="font-weight:bold;vertical-align:top;">web2py_version</td><td style="vertical-align:top;">:</td><td><div>2.17.1-stable+timestamp.2018.08.06.01.02.56</div></td></tr></table></div></td></tr><tr><td style="font-weight:bold;vertical-align:top;">is_https</td><td style="vertical-align:top;">:</td><td><div>False</div></td></tr><tr><td style="font-weight:bold;vertical-align:top;">is_local</td><td style="vertical-align:top;">:</td><td><div>True</div></td></tr><tr><td style="font-weight:bold;vertical-align:top;">is_restful</td><td style="vertical-align:top;">:</td><td><div>False</div></td></tr><tr><td style="font-weight:bold;vertical-align:top;">is_scheduler</td><td style="vertical-align:top;">:</td><td><div>False</div></td></tr><tr><td style="font-weight:bold;vertical-align:top;">is_shell</td><td style="vertical-align:top;">:</td><td><div>False</div></td></tr><tr><td style="font-weight:bold;vertical-align:top;">method</td><td style="vertical-align:top;">:</td><td><div>POST</div></td></tr><tr><td style="font-weight:bold;vertical-align:top;">now</td><td style="vertical-align:top;">:</td><td><div>datetime.datetime(2019, 3, 5, 13, 15, 14, 956568)</div></td></tr><tr><td style="font-weight:bold;vertical-align:top;">raw_args</td><td style="vertical-align:top;">:</td><td><div></div></td></tr><tr><td style="font-weight:bold;vertical-align:top;">raw_extension</td><td style="vertical-align:top;">:</td><td><div>None</div></td></tr><tr><td style="font-weight:bold;vertical-align:top;">url</td><td style="vertical-align:top;">:</td><td><div>/buysellapp/default/search</div></td></tr><tr><td style="font-weight:bold;vertical-align:top;">utcnow</td><td style="vertical-align:top;">:</td><td><div>datetime.datetime(2019, 3, 5, 13, 15, 14, 956665)</div></td></tr><tr><td style="font-weight:bold;vertical-align:top;">wsgi</td><td style="vertical-align:top;">:</td><td><div>&lt;gluon.main.LazyWSGI object at 0x10c227ed0&gt;</div></td></tr></table></div>'
tRp60
sS'frames'
p61
(lp62
(dp63
S'file'
p64
S'/Users/bola/Desktop/web2py/gluon/restricted.py'
p65
sS'dump'
p66
(dp67
S'environment'
p68
S"{'A': <class 'gluon.html.A'>, 'ANY_OF': <class 'gluon.validators.ANY_OF'>, 'ASSIGNJS': <function ASSIGNJS>, 'Auth': <class 'gluon.tools.Auth'>, 'B': <class 'gluon.html.B'>, 'BEAUTIFY': <class 'gluon.html.BEAUTIFY'>, 'BODY': <class 'gluon.html.BODY'>, 'BR': <class 'gluon.html.BR'>, 'BUTTON': <class 'gluon.html.BUTTON'>, 'CAT': <class 'gluon.html.CAT'>, ...}"
p69
sS'ccode'
p70
S'<code object <module> at 0x10bab14b0, file "/Use...ns/buysellapp/views/default/search.html", line 1>'
p71
ssS'lnum'
p72
I219
sS'lines'
p73
(dp74
I214
S'    if environment is None:'
p75
sI215
S'        environment = {}'
p76
sI216
S"    environment['__file__'] = layer"
p77
sI217
S"    environment['__name__'] = '__restricted__'"
p78
sI218
S'    try:'
p79
sI219
S'        exec(ccode, environment)'
p80
sI220
S'    except HTTP:'
p81
sI221
S'        raise'
p82
sI222
S'    except RestrictedError:'
p83
sI223
S'        # do not encapsulate (obfuscate) the original RestrictedError'
p84
ssS'call'
p85
S'(ccode=<code object <module> at 0x10bab14b0, file "/Use...ns/buysellapp/views/default/search.html", line 1>, environment={\'A\': <class \'gluon.html.A\'>, \'ANY_OF\': <class \'gluon.validators.ANY_OF\'>, \'ASSIGNJS\': <function ASSIGNJS>, \'Auth\': <class \'gluon.tools.Auth\'>, \'B\': <class \'gluon.html.B\'>, \'BEAUTIFY\': <class \'gluon.html.BEAUTIFY\'>, \'BODY\': <class \'gluon.html.BODY\'>, \'BR\': <class \'gluon.html.BR\'>, \'BUTTON\': <class \'gluon.html.BUTTON\'>, \'CAT\': <class \'gluon.html.CAT\'>, ...}, layer=\'/Users/bola/Desktop/web2py/applications/buysellapp/views/default/search.html\', scode="response.write(\'\\\\n<!DOCTYPE html>\\\\n<head>\\\\n<link...<br />\', escape=False)\\nresponse.write(target_div)")'
p86
sS'func'
p87
S'restricted'
p88
sa(dp89
g64
S'/Users/bola/Desktop/web2py/applications/buysellapp/views/default/search.html'
p90
sg66
(dp91
S'html'
p92
S'undefined'
p93
sS'DOCTYPE'
p94
g93
ssg72
I2
sg73
(dp95
I1
S'response.write(\'\\n<!DOCTYPE html>\\n<head>\\n<link href="https://fonts.googleapis.com/css?family=Poppins" rel="stylesheet">\\n</head>\\n<style>\\n\\nh1 {\\n\\tfont-family: \\\'Poppins\\\', sans-serif;\\n\\tcolor: DarkPink;\\n\\tfont-weight: bold;\\n\\ttext-align: center;\\n\\tfont-size: 40px;\\n\\tpadding: 30px;\\n}\\n\\nbody {\\n\\ttext-align: left;\\n\\tline-height: 50px;\\n\\tcolor: Teal;\\n\\tfont-size: 20px;\\n\\tfont-family: \\\'Poppins\\\', sans-serif;\\n\\n</style>\\n<body>\\n<h2>Management Interface</h2>\\n\', escape=False)'
p96
sI2
S'response.write(grid)'
p97
sI3
S"response.write('\\n</body>\\n</html>\\n<h1>Search Ads</h1>\\n[ ', escape=False)"
p98
sI4
S"response.write(A('listall ads', _href=URL('index')))"
p99
sI5
S"response.write(']<br />\\n', escape=False)"
p100
sI6
S'response.write(form)'
p101
sI7
S"response.write('<br />', escape=False)"
p102
sI8
S'response.write(target_div)'
p103
ssg85
S'()'
p104
sg87
S'<module>'
p105
sasS'pyver'
p106
S'Python 2.7.10: /usr/bin/python (prefix: /System/Library/Frameworks/Python.framework/Versions/2.7)'
p107
sS'session'
p108
g59
(S's\xb6\x01\x00\x00<div><table><tr><td style="font-weight:bold;vertical-align:top;">flash</td><td style="vertical-align:top;">:</td><td><div>None</div></td></tr><tr><td style="font-weight:bold;vertical-align:top;">last_orderby</td><td style="vertical-align:top;">:</td><td><div>None</div></td></tr><tr><td style="font-weight:bold;vertical-align:top;">last_query</td><td style="vertical-align:top;">:</td><td><div>db.ads.id&gt;0</div></td></tr></table></div>'
tRp109
sS'etype'
p110
S"<type 'exceptions.NameError'>"
p111
sS'date'
p112
S'Tue Mar  5 13:15:15 2019'
p113
sS'response'
p114
g59
(S's{\x17\x00\x00<div><table><tr><td style="font-weight:bold;vertical-align:top;">body</td><td style="vertical-align:top;">:</td><td><div>&lt;cStringIO.StringO object at 0x10c783ab0&gt;</div></td></tr><tr><td style="font-weight:bold;vertical-align:top;">cookies</td><td style="vertical-align:top;">:</td><td><div><table><tr><td style="font-weight:bold;vertical-align:top;">session_id_buysellapp</td><td style="vertical-align:top;">:</td><td><div>127.0.0.1-0a2a9b84-6c11-4ab0-8fd6-a04aa9bf0791<table><tr><td style="font-weight:bold;vertical-align:top;">comment</td><td style="vertical-align:top;">:</td><td><div></div></td></tr><tr><td style="font-weight:bold;vertical-align:top;">domain</td><td style="vertical-align:top;">:</td><td><div></div></td></tr><tr><td style="font-weight:bold;vertical-align:top;">expires</td><td style="vertical-align:top;">:</td><td><div></div></td></tr><tr><td style="font-weight:bold;vertical-align:top;">httponly</td><td style="vertical-align:top;">:</td><td><div></div></td></tr><tr><td style="font-weight:bold;vertical-align:top;">max-age</td><td style="vertical-align:top;">:</td><td><div></div></td></tr><tr><td style="font-weight:bold;vertical-align:top;">path</td><td style="vertical-align:top;">:</td><td><div>/</div></td></tr><tr><td style="font-weight:bold;vertical-align:top;">secure</td><td style="vertical-align:top;">:</td><td><div></div></td></tr><tr><td style="font-weight:bold;vertical-align:top;">version</td><td style="vertical-align:top;">:</td><td><div></div></td></tr></table></div></td></tr></table></div></td></tr><tr><td style="font-weight:bold;vertical-align:top;">delimiters</td><td style="vertical-align:top;">:</td><td><div><table><tr><td><div>{{</div></td></tr><tr><td><div>}}</div></td></tr></table></div></td></tr><tr><td style="font-weight:bold;vertical-align:top;">files</td><td style="vertical-align:top;">:</td><td><div><table></table></div></td></tr><tr><td style="font-weight:bold;vertical-align:top;">flash</td><td style="vertical-align:top;">:</td><td><div></div></td></tr><tr><td style="font-weight:bold;vertical-align:top;">form_label_separator</td><td style="vertical-align:top;">:</td><td><div>: </div></td></tr><tr><td style="font-weight:bold;vertical-align:top;">formstyle</td><td style="vertical-align:top;">:</td><td><div>table3cols</div></td></tr><tr><td style="font-weight:bold;vertical-align:top;">generic_patterns</td><td style="vertical-align:top;">:</td><td><div><table><tr><td><div>*</div></td></tr></table></div></td></tr><tr><td style="font-weight:bold;vertical-align:top;">headers</td><td style="vertical-align:top;">:</td><td><div><table><tr><td style="font-weight:bold;vertical-align:top;">X-Powered-By</td><td style="vertical-align:top;">:</td><td><div>web2py</div></td></tr></table></div></td></tr><tr><td style="font-weight:bold;vertical-align:top;">menu</td><td style="vertical-align:top;">:</td><td><div><table></table></div></td></tr><tr><td style="font-weight:bold;vertical-align:top;">meta</td><td style="vertical-align:top;">:</td><td><div><table></table></div></td></tr><tr><td style="font-weight:bold;vertical-align:top;">models_to_run</td><td style="vertical-align:top;">:</td><td><div><table><tr><td><div>^\\w+\\.py$</div></td></tr><tr><td><div>^default/\\w+\\.py$</div></td></tr><tr><td><div>^default/search/\\w+\\.py$</div></td></tr></table></div></td></tr><tr><td style="font-weight:bold;vertical-align:top;">postprocessing</td><td style="vertical-align:top;">:</td><td><div><table></table></div></td></tr><tr><td style="font-weight:bold;vertical-align:top;">session_client</td><td style="vertical-align:top;">:</td><td><div>127.0.0.1</div></td></tr><tr><td style="font-weight:bold;vertical-align:top;">session_cookie_compression_level</td><td style="vertical-align:top;">:</td><td><div>None</div></td></tr><tr><td style="font-weight:bold;vertical-align:top;">session_cookie_expires</td><td style="vertical-align:top;">:</td><td><div>None</div></td></tr><tr><td style="font-weight:bold;vertical-align:top;">session_data_name</td><td style="vertical-align:top;">:</td><td><div>session_data_buysellapp</div></td></tr><tr><td style="font-weight:bold;vertical-align:top;">session_file</td><td style="vertical-align:top;">:</td><td><div>&lt;open file &#x27;/Users/bola/Desktop/web2py/applications/buysellapp/sessions/189/1c5/127.0.0.1-0a2a9b84-6c11-4ab0-8fd6-a04aa9bf0791&#x27;, mode &#x27;rb+&#x27; at 0x10c3f64b0&gt;</div></td></tr><tr><td style="font-weight:bold;vertical-align:top;">session_filename</td><td style="vertical-align:top;">:</td><td><div>/Users/bola/Desktop/web2py/applications/buysellapp/sessions/127.0.0.1-0a2a9b84-6c11-4ab0-8fd6-a04aa9bf0791</div></td></tr><tr><td style="font-weight:bold;vertical-align:top;">session_hash</td><td style="vertical-align:top;">:</td><td><div>c24901015c9da4a42982c4ad917cc0bc</div></td></tr><tr><td style="font-weight:bold;vertical-align:top;">session_id</td><td style="vertical-align:top;">:</td><td><div>127.0.0.1-0a2a9b84-6c11-4ab0-8fd6-a04aa9bf0791</div></td></tr><tr><td style="font-weight:bold;vertical-align:top;">session_id_name</td><td style="vertical-align:top;">:</td><td><div>session_id_buysellapp</div></td></tr><tr><td style="font-weight:bold;vertical-align:top;">session_locked</td><td style="vertical-align:top;">:</td><td><div>True</div></td></tr><tr><td style="font-weight:bold;vertical-align:top;">session_masterapp</td><td style="vertical-align:top;">:</td><td><div>buysellapp</div></td></tr><tr><td style="font-weight:bold;vertical-align:top;">session_new</td><td style="vertical-align:top;">:</td><td><div>False</div></td></tr><tr><td style="font-weight:bold;vertical-align:top;">session_storage_type</td><td style="vertical-align:top;">:</td><td><div>file</div></td></tr><tr><td style="font-weight:bold;vertical-align:top;">status</td><td style="vertical-align:top;">:</td><td><div>200</div></td></tr><tr><td style="font-weight:bold;vertical-align:top;">view</td><td style="vertical-align:top;">:</td><td><div>default/search.html</div></td></tr></table></div>'
tRp115
sS'locals'
p116
(dp117
S'PY2'
p118
S'True'
p119
sS'OBJECT'
p120
S"<class 'gluon.html.OBJECT'>"
p121
sS'SQLDB'
p122
S"<class 'pydal.base.DAL'>"
p123
sg108
S"<Storage {'last_query': 'db.ads.id>0', '_formkey...307a5', '9852ad9b-cc23-4db7-af7b-3ddd2797c7b0']}>"
p124
sS'LINK'
p125
S"<class 'gluon.html.LINK'>"
p126
sS'BR'
p127
S"<class 'gluon.html.BR'>"
p128
sS'local_import'
p129
S'<function <lambda>>'
p130
sS'OPTGROUP'
p131
S"<class 'gluon.html.OPTGROUP'>"
p132
sS'__package__'
p133
S'None'
p134
sS'PRE'
p135
S"<class 'gluon.html.PRE'>"
p136
sS'IS_INT_IN_RANGE'
p137
S"<class 'gluon.validators.IS_INT_IN_RANGE'>"
p138
sS'to_bytes'
p139
S'<function to_bytes>'
p140
sS'IS_LOWER'
p141
S"<class 'gluon.validators.IS_LOWER'>"
p142
sS'IS_STRONG'
p143
S"<class 'gluon.validators.IS_STRONG'>"
p144
sS'cache'
p145
S'<gluon.cache.Cache object>'
p146
sS'IS_IN_DB'
p147
S"<class 'gluon.validators.IS_IN_DB'>"
p148
sS'TAG'
p149
S'<gluon.html.__TAG__ object>'
p150
sS'SQLField'
p151
S"<class 'pydal.objects.Field'>"
p152
sS'BODY'
p153
S"<class 'gluon.html.BODY'>"
p154
sS'IS_DATE_IN_RANGE'
p155
S"<class 'gluon.validators.IS_DATE_IN_RANGE'>"
p156
sS'IFRAME'
p157
S"<class 'gluon.html.IFRAME'>"
p158
sS'URL'
p159
S'<function URL>'
p160
sS'__file__'
p161
S"'/Users/bola/Desktop/web2py/applications/buysellapp/views/default/search.html'"
p162
sS'db'
p163
S'<DAL uri="sqlite://storage.sqlite">'
p164
sS'auth'
p165
S'<gluon.tools.Auth object>'
p166
sS'P'
S"<class 'gluon.html.P'>"
p167
sS'TFOOT'
p168
S"<class 'gluon.html.TFOOT'>"
p169
sS'iteritems'
p170
S'<function <lambda>>'
p171
sS'XHTML'
p172
S"<class 'gluon.html.XHTML'>"
p173
sS'ON'
p174
g119
sS'OL'
p175
S"<class 'gluon.html.OL'>"
p176
sS'TEXTAREA'
p177
S"<class 'gluon.html.TEXTAREA'>"
p178
sS'MENU'
p179
S"<class 'gluon.html.MENU'>"
p180
sS'STYLE'
p181
S"<class 'gluon.html.STYLE'>"
p182
sS'IS_IMAGE'
p183
S"<class 'gluon.validators.IS_IMAGE'>"
p184
sS'EM'
p185
S"<class 'gluon.html.EM'>"
p186
sS'CODE'
p187
S"<class 'gluon.html.CODE'>"
p188
sS'HTTP'
p189
S"<class 'gluon.http.HTTP'>"
p190
sS'HR'
p191
S"<class 'gluon.html.HR'>"
p192
sS'IS_DATETIME'
p193
S"<class 'gluon.validators.IS_DATETIME'>"
p194
sS'reduce'
p195
S'<built-in function reduce>'
p196
sS'target_div'
p197
S'<gluon.html.DIV object>'
p198
sS'LABEL'
p199
S"<class 'gluon.html.LABEL'>"
p200
sS'CLEANUP'
p201
S"<class 'gluon.validators.CLEANUP'>"
p202
sS'SELECT'
p203
S"<class 'gluon.html.SELECT'>"
p204
sS'CENTER'
p205
S"<class 'gluon.html.CENTER'>"
p206
sS'Auth'
p207
S"<class 'gluon.tools.Auth'>"
p208
sS'__builtins__'
p209
S"{'ArithmeticError': <type 'exceptions.ArithmeticError'>, 'AssertionError': <type 'exceptions.AssertionError'>, 'AttributeError': <type 'exceptions.AttributeError'>, 'BaseException': <type 'exceptions.BaseException'>, 'BufferError': <type 'exceptions.BufferError'>, 'BytesWarning': <type 'exceptions.BytesWarning'>, 'DeprecationWarning': <type 'exceptions.DeprecationWarning'>, 'EOFError': <type 'exceptions.EOFError'>, 'Ellipsis': Ellipsis, 'EnvironmentError': <type 'exceptions.EnvironmentError'>, ...}"
p210
sS'HTML'
p211
S"<class 'gluon.html.HTML'>"
p212
sS'SQLFORM'
p213
S"<class 'gluon.sqlhtml.SQLFORM'>"
p214
sS'LOAD'
p215
S'<function LOAD>'
p216
sS'redirect'
p217
S'<function redirect>'
p218
sS'FIELDSET'
p219
S"<class 'gluon.html.FIELDSET'>"
p220
sS'IS_EQUAL_TO'
p221
S"<class 'gluon.validators.IS_EQUAL_TO'>"
p222
sS'embed64'
p223
S'<function embed64>'
p224
sS'IS_LIST_OF'
p225
S"<class 'gluon.validators.IS_LIST_OF'>"
p226
sS'INPUT'
p227
S"<class 'gluon.html.INPUT'>"
p228
sS'EMBED'
p229
S"<class 'gluon.html.EMBED'>"
p230
sS'H2'
p231
S"<class 'gluon.html.H2'>"
p232
sS'H3'
p233
S"<class 'gluon.html.H3'>"
p234
sS'BUTTON'
p235
S"<class 'gluon.html.BUTTON'>"
p236
sS'H1'
p237
S"<class 'gluon.html.H1'>"
p238
sS'H6'
p239
S"<class 'gluon.html.H6'>"
p240
sS'H4'
p241
S"<class 'gluon.html.H4'>"
p242
sS'H5'
p243
S"<class 'gluon.html.H5'>"
p244
sS'UL'
p245
S"<class 'gluon.html.UL'>"
p246
sS'IS_UPPER'
p247
S"<class 'gluon.validators.IS_UPPER'>"
p248
sS'xmlescape'
p249
S'<function xmlescape>'
p250
sS'IS_TIME'
p251
S"<class 'gluon.validators.IS_TIME'>"
p252
sS'OPTION'
p253
S"<class 'gluon.html.OPTION'>"
p254
sS'TITLE'
p255
S"<class 'gluon.html.TITLE'>"
p256
sS'CRYPT'
p257
S"<class 'gluon.validators.CRYPT'>"
p258
sS'IS_EMPTY_OR'
p259
S"<class 'gluon.validators.IS_EMPTY_OR'>"
p260
sS'MARKMIN'
p261
S"<class 'gluon.html.MARKMIN'>"
p262
sS'__name__'
p263
S"'__restricted__'"
p264
sS'STRONG'
p265
S"<class 'gluon.html.STRONG'>"
p266
sS'COL'
p267
S"<class 'gluon.html.COL'>"
p268
sS'SCRIPT'
p269
S"<class 'gluon.html.SCRIPT'>"
p270
sS'TABLE'
p271
S"<class 'gluon.html.TABLE'>"
p272
sS'IS_IPV4'
p273
S"<class 'gluon.validators.IS_IPV4'>"
p274
sS'IS_LENGTH'
p275
S"<class 'gluon.validators.IS_LENGTH'>"
p276
sS'IS_IPV6'
p277
S"<class 'gluon.validators.IS_IPV6'>"
p278
sS'XML'
p279
S"<class 'gluon.html.XML'>"
p280
sS'B'
S"<class 'gluon.html.B'>"
p281
sS'IMG'
p282
S"<class 'gluon.html.IMG'>"
p283
sS'SQLTABLE'
p284
S"<class 'gluon.sqlhtml.SQLTABLE'>"
p285
sS'IS_MATCH'
p286
S"<class 'gluon.validators.IS_MATCH'>"
p287
sS'IS_ALPHANUMERIC'
p288
S"<class 'gluon.validators.IS_ALPHANUMERIC'>"
p289
sS'SPAN'
p290
S"<class 'gluon.html.SPAN'>"
p291
sS'IS_JSON'
p292
S"<class 'gluon.validators.IS_JSON'>"
p293
sS'IS_IPADDRESS'
p294
S"<class 'gluon.validators.IS_IPADDRESS'>"
p295
sS'IS_SLUG'
p296
S"<class 'gluon.validators.IS_SLUG'>"
p297
sS'BEAUTIFY'
p298
S"<class 'gluon.html.BEAUTIFY'>"
p299
sS'META'
p300
S"<class 'gluon.html.META'>"
p301
sS'IS_DATE'
p302
S"<class 'gluon.validators.IS_DATE'>"
p303
sS'IS_EMAIL'
p304
S"<class 'gluon.validators.IS_EMAIL'>"
p305
sS'IS_NOT_EMPTY'
p306
S"<class 'gluon.validators.IS_NOT_EMPTY'>"
p307
sS'xrange'
p308
S"<type 'xrange'>"
p309
sS'TBODY'
p310
S"<class 'gluon.html.TBODY'>"
p311
sS'CAT'
p312
S"<class 'gluon.html.CAT'>"
p313
sS'Field'
p314
S"<class 'pydal.objects.Field'>"
p315
sS'IS_LIST_OF_EMAILS'
p316
S"<class 'gluon.validators.IS_LIST_OF_EMAILS'>"
p317
sg58
S"<Storage {'function': 'search', 'cookies': <Simp...False, 'is_https': False, 'client': '127.0.0.1'}>"
p318
sS'DIV'
p319
S"<class 'gluon.html.DIV'>"
p320
sS'LEGEND'
p321
S"<class 'gluon.html.LEGEND'>"
p322
sS'form'
p323
S'<gluon.html.FORM object>'
p324
sS'to_native'
p325
S'<function to_native>'
p326
sS'COLGROUP'
p327
S"<class 'gluon.html.COLGROUP'>"
p328
sS'DAL'
p329
S"<class 'pydal.base.DAL'>"
p330
sS'ASSIGNJS'
p331
S'<function ASSIGNJS>'
p332
sS'TR'
p333
S"<class 'gluon.html.TR'>"
p334
sS'LI'
p335
S"<class 'gluon.html.LI'>"
p336
sS'TH'
p337
S"<class 'gluon.html.TH'>"
p338
sS'TD'
p339
S"<class 'gluon.html.TD'>"
p340
sS'IS_URL'
p341
S"<class 'gluon.validators.IS_URL'>"
p342
sS'A'
S"<class 'gluon.html.A'>"
p343
sS'HEAD'
p344
S"<class 'gluon.html.HEAD'>"
p345
sS'IS_DATETIME_IN_RANGE'
p346
S"<class 'gluon.validators.IS_DATETIME_IN_RANGE'>"
p347
sS'FORM'
p348
S"<class 'gluon.html.FORM'>"
p349
sS'I'
S"<class 'gluon.html.I'>"
p350
sS'IS_NOT_IN_DB'
p351
S"<class 'gluon.validators.IS_NOT_IN_DB'>"
p352
sg114
S"<Storage {'body': <cStringIO.StringO object at 0... at 0x10b172578>, 'view': 'default/search.html'}>"
p353
sS'THEAD'
p354
S"<class 'gluon.html.THEAD'>"
p355
sS'ANY_OF'
p356
S"<class 'gluon.validators.ANY_OF'>"
p357
sS'IS_NULL_OR'
p358
S"<class 'gluon.validators.IS_EMPTY_OR'>"
p359
sS'IS_FLOAT_IN_RANGE'
p360
S"<class 'gluon.validators.IS_FLOAT_IN_RANGE'>"
p361
sS'IS_EXPR'
p362
S"<class 'gluon.validators.IS_EXPR'>"
p363
sS'T'
S'<gluon.languages.translator object>'
p364
sS'IS_IN_SET'
p365
S"<class 'gluon.validators.IS_IN_SET'>"
p366
sS'IS_UPLOAD_FILENAME'
p367
S"<class 'gluon.validators.IS_UPLOAD_FILENAME'>"
p368
sS'TT'
p369
S"<class 'gluon.html.TT'>"
p370
sS'IS_DECIMAL_IN_RANGE'
p371
S"<class 'gluon.validators.IS_DECIMAL_IN_RANGE'>"
p372
sssS'traceback'
p373
S'Traceback (most recent call last):\n  File "/Users/bola/Desktop/web2py/gluon/restricted.py", line 219, in restricted\n    exec(ccode, environment)\n  File "/Users/bola/Desktop/web2py/applications/buysellapp/views/default/search.html", line 2, in <module>\n    <!DOCTYPE html>\nNameError: name \'grid\' is not defined\n'
p374
s.